target datalayout = "e-m:e-p270:32:32-p271:32:32-p272:64:64-i64:64-i128:128-f80:128-n8:16:32:64-S128"
target triple = "x86_64-pc-linux-gnu"

%struct.atomic_flag = type { i8 }
%struct.Agobj_s = type { %struct.Agtag_s, ptr }
%struct.Agtag_s = type { i32, i64 }
%struct.Agraphinfo_t = type { %struct.Agrec_s, ptr, ptr, %struct.boxf, [4 x %struct.pointf_s], i8, i8, i8, i8, i32, double, double, i16, ptr, ptr, ptr, ptr, i32, ptr, ptr, ptr, ptr, i16, i16, i32, ptr, ptr, ptr, ptr, ptr, i32, ptr, ptr, %struct.nlist_t, ptr, ptr, i32, i32, i8, i8, i32, i32, i32, ptr, ptr, ptr, ptr, i8, i8, i8, i8, i8 }
%struct.Agrec_s = type { ptr, ptr }
%struct.boxf = type { %struct.pointf_s, %struct.pointf_s }
%struct.pointf_s = type { double, double }
%struct.nlist_t = type { ptr, i64 }
%struct.Agnodeinfo_t = type { %struct.Agrec_s, ptr, ptr, %struct.pointf_s, double, double, %struct.boxf, double, double, double, double, double, ptr, ptr, ptr, i8, i8, i8, i8, i32, i32, i32, ptr, double, i8, i8, ptr, ptr, i8, i64, i8, i8, i8, ptr, ptr, %struct.elist, %struct.elist, %struct.elist, %struct.elist, %struct.elist, ptr, i32, ptr, i32, i32, double, %struct.elist, %struct.elist, %struct.elist, %struct.elist, ptr, i32, i32, i32, [1 x double] }
%struct.elist = type { ptr, i64 }

@Verbose = external global i8, align 1
@stderr = external global ptr, align 8
@Ndim = external global i16, align 2
@initial_positions.once = internal global %struct.atomic_flag zeroinitializer, align 1
@.str.5 = private unnamed_addr constant [27 x i8] c"Setting initial positions\0A\00", align 1
@.str.6 = private unnamed_addr constant [48 x i8] c"start=0 not supported with mode=self - ignored\0A\00", align 1

; Function Attrs: nounwind uwtable
define void @jitter_d(ptr noundef %0, i32 noundef %1, i32 noundef %2) #0 {
  %4 = alloca ptr, align 8
  %5 = alloca i32, align 4
  %6 = alloca i32, align 4
  %7 = alloca i32, align 4
  store ptr %0, ptr %4, align 8, !tbaa !29
  store i32 %1, ptr %5, align 4, !tbaa !3
  store i32 %2, ptr %6, align 4, !tbaa !3
  call void @llvm.lifetime.start.p0(i64 4, ptr %7) #11
  %8 = load i32, ptr %6, align 4, !tbaa !3
  store i32 %8, ptr %7, align 4, !tbaa !3
  br label %9

9:                                                ; preds = %27, %3
  %10 = load i32, ptr %7, align 4, !tbaa !3
  %11 = load i16, ptr @Ndim, align 2, !tbaa !74
  %12 = zext i16 %11 to i32
  %13 = icmp slt i32 %10, %12
  br i1 %13, label %14, label %30

14:                                               ; preds = %9
  %15 = load i32, ptr %5, align 4, !tbaa !3
  %16 = sitofp i32 %15 to double
  %17 = call double @drand48() #11
  %18 = fmul double %16, %17
  %19 = load ptr, ptr %4, align 8, !tbaa !29
  %20 = getelementptr inbounds nuw %struct.Agobj_s, ptr %19, i32 0, i32 1
  %21 = load ptr, ptr %20, align 8, !tbaa !47
  %22 = getelementptr inbounds nuw %struct.Agnodeinfo_t, ptr %21, i32 0, i32 22
  %23 = load ptr, ptr %22, align 8, !tbaa !96
  %24 = load i32, ptr %7, align 4, !tbaa !3
  %25 = sext i32 %24 to i64
  %26 = getelementptr inbounds double, ptr %23, i64 %25
  store double %18, ptr %26, align 8, !tbaa !7
  br label %27

27:                                               ; preds = %14
  %28 = load i32, ptr %7, align 4, !tbaa !3
  %29 = add nsw i32 %28, 1
  store i32 %29, ptr %7, align 4, !tbaa !3
  br label %9, !llvm.loop !97

30:                                               ; preds = %9
  call void @llvm.lifetime.end.p0(i64 4, ptr %7) #11
  ret void
}

; Function Attrs: nounwind uwtable
define void @jitter3d(ptr noundef %0, i32 noundef %1) #0 {
  %3 = alloca ptr, align 8
  %4 = alloca i32, align 4
  store ptr %0, ptr %3, align 8, !tbaa !29
  store i32 %1, ptr %4, align 4, !tbaa !3
  %5 = load ptr, ptr %3, align 8, !tbaa !29
  %6 = load i32, ptr %4, align 4, !tbaa !3
  call void @jitter_d(ptr noundef %5, i32 noundef %6, i32 noundef 2)
  ret void
}

; Function Attrs: nounwind uwtable
define void @randompos(ptr noundef %0, i32 noundef %1) #0 {
  %3 = alloca ptr, align 8
  %4 = alloca i32, align 4
  store ptr %0, ptr %3, align 8, !tbaa !29
  store i32 %1, ptr %4, align 4, !tbaa !3
  %5 = load i32, ptr %4, align 4, !tbaa !3
  %6 = sitofp i32 %5 to double
  %7 = call double @drand48() #11
  %8 = fmul double %6, %7
  %9 = load ptr, ptr %3, align 8, !tbaa !29
  %10 = getelementptr inbounds nuw %struct.Agobj_s, ptr %9, i32 0, i32 1
  %11 = load ptr, ptr %10, align 8, !tbaa !47
  %12 = getelementptr inbounds nuw %struct.Agnodeinfo_t, ptr %11, i32 0, i32 22
  %13 = load ptr, ptr %12, align 8, !tbaa !96
  %14 = getelementptr inbounds double, ptr %13, i64 0
  store double %8, ptr %14, align 8, !tbaa !7
  %15 = load i32, ptr %4, align 4, !tbaa !3
  %16 = sitofp i32 %15 to double
  %17 = call double @drand48() #11
  %18 = fmul double %16, %17
  %19 = load ptr, ptr %3, align 8, !tbaa !29
  %20 = getelementptr inbounds nuw %struct.Agobj_s, ptr %19, i32 0, i32 1
  %21 = load ptr, ptr %20, align 8, !tbaa !47
  %22 = getelementptr inbounds nuw %struct.Agnodeinfo_t, ptr %21, i32 0, i32 22
  %23 = load ptr, ptr %22, align 8, !tbaa !96
  %24 = getelementptr inbounds double, ptr %23, i64 1
  store double %18, ptr %24, align 8, !tbaa !7
  %25 = load i16, ptr @Ndim, align 2, !tbaa !74
  %26 = zext i16 %25 to i32
  %27 = icmp sgt i32 %26, 2
  br i1 %27, label %28, label %31

28:                                               ; preds = %2
  %29 = load ptr, ptr %3, align 8, !tbaa !29
  %30 = load i32, ptr %4, align 4, !tbaa !3
  call void @jitter3d(ptr noundef %29, i32 noundef %30)
  br label %31

31:                                               ; preds = %28, %2
  ret void
}

; Function Attrs: nounwind uwtable
define void @initial_positions(ptr noundef %0, i32 noundef %1) #0 {
  %3 = alloca ptr, align 8
  %4 = alloca i32, align 4
  %5 = alloca i32, align 4
  %6 = alloca i32, align 4
  %7 = alloca ptr, align 8
  %8 = alloca i32, align 4
  %9 = alloca i8, align 1
  %10 = alloca i8, align 1
  store ptr %0, ptr %3, align 8, !tbaa !22
  store i32 %1, ptr %4, align 4, !tbaa !3
  call void @llvm.lifetime.start.p0(i64 4, ptr %5) #11
  call void @llvm.lifetime.start.p0(i64 4, ptr %6) #11
  call void @llvm.lifetime.start.p0(i64 8, ptr %7) #11
  %11 = load i8, ptr @Verbose, align 1, !tbaa !24
  %12 = icmp ne i8 %11, 0
  br i1 %12, label %13, label %16

13:                                               ; preds = %2
  %14 = load ptr, ptr @stderr, align 8, !tbaa !19
  %15 = call i32 (ptr, ptr, ...) @fprintf(ptr noundef %14, ptr noundef @.str.5) #11
  br label %16

16:                                               ; preds = %13, %2
  %17 = load ptr, ptr %3, align 8, !tbaa !22
  %18 = load i32, ptr %4, align 4, !tbaa !3
  %19 = call i32 @checkStart(ptr noundef %17, i32 noundef %18, i32 noundef 2)
  store i32 %19, ptr %5, align 4, !tbaa !3
  %20 = load i32, ptr %5, align 4, !tbaa !3
  %21 = icmp eq i32 %20, 1
  br i1 %21, label %22, label %23

22:                                               ; preds = %16
  store i32 1, ptr %8, align 4
  br label %59

23:                                               ; preds = %16
  %24 = load i32, ptr %5, align 4, !tbaa !3
  %25 = icmp eq i32 %24, 0
  br i1 %25, label %26, label %32

26:                                               ; preds = %23
  store i8 1, ptr %9, align 1, !tbaa !25
  %27 = load i8, ptr %9, align 1
  %28 = atomicrmw xchg ptr @initial_positions.once, i8 %27 seq_cst, align 1
  store i8 %28, ptr %10, align 1
  %29 = load i8, ptr %10, align 1, !tbaa !25, !range !27, !noundef !28
  %30 = trunc i8 %29 to i1
  br i1 %30, label %32, label %31

31:                                               ; preds = %26
  call void (ptr, ...) @agwarningf(ptr noundef @.str.6)
  br label %32

32:                                               ; preds = %31, %26, %23
  store i32 0, ptr %6, align 4, !tbaa !3
  br label %33

33:                                               ; preds = %55, %32
  %34 = load ptr, ptr %3, align 8, !tbaa !22
  %35 = getelementptr inbounds nuw %struct.Agobj_s, ptr %34, i32 0, i32 1
  %36 = load ptr, ptr %35, align 8, !tbaa !47
  %37 = getelementptr inbounds nuw %struct.Agraphinfo_t, ptr %36, i32 0, i32 16
  %38 = load ptr, ptr %37, align 8, !tbaa !48
  %39 = load i32, ptr %6, align 4, !tbaa !3
  %40 = sext i32 %39 to i64
  %41 = getelementptr inbounds ptr, ptr %38, i64 %40
  %42 = load ptr, ptr %41, align 8, !tbaa !29
  store ptr %42, ptr %7, align 8, !tbaa !29
  %43 = icmp ne ptr %42, null
  br i1 %43, label %44, label %58

44:                                               ; preds = %33
  %45 = load ptr, ptr %7, align 8, !tbaa !29
  %46 = getelementptr inbounds nuw %struct.Agobj_s, ptr %45, i32 0, i32 1
  %47 = load ptr, ptr %46, align 8, !tbaa !47
  %48 = getelementptr inbounds nuw %struct.Agnodeinfo_t, ptr %47, i32 0, i32 18
  %49 = load i8, ptr %48, align 1, !tbaa !98
  %50 = zext i8 %49 to i32
  %51 = icmp sgt i32 %50, 0
  br i1 %51, label %52, label %53

52:                                               ; preds = %44
  br label %55

53:                                               ; preds = %44
  %54 = load ptr, ptr %7, align 8, !tbaa !29
  call void @randompos(ptr noundef %54, i32 noundef 1)
  br label %55

55:                                               ; preds = %53, %52
  %56 = load i32, ptr %6, align 4, !tbaa !3
  %57 = add nsw i32 %56, 1
  store i32 %57, ptr %6, align 4, !tbaa !3
  br label %33, !llvm.loop !99

58:                                               ; preds = %33
  store i32 0, ptr %8, align 4
  br label %59

59:                                               ; preds = %58, %22
  call void @llvm.lifetime.end.p0(i64 8, ptr %7) #11
  call void @llvm.lifetime.end.p0(i64 4, ptr %6) #11
  call void @llvm.lifetime.end.p0(i64 4, ptr %5) #11
  %60 = load i32, ptr %8, align 4
  switch i32 %60, label %62 [
    i32 0, label %61
    i32 1, label %61
  ]

61:                                               ; preds = %59, %59
  ret void

62:                                               ; preds = %59
  unreachable
}