; Function Attrs: nounwind uwtable
define void @initial_positions(ptr noundef %0, i32 noundef %1) local_unnamed_addr #4 {
  %3 = load i8, ptr @Verbose, align 1, !tbaa !15
  %.not = icmp eq i8 %3, 0
  br i1 %.not, label %7, label %4

4:                                                ; preds = %2
  %5 = load ptr, ptr @stderr, align 8, !tbaa !3
  %6 = tail call i64 @fwrite(ptr nonnull @.str.5, i64 26, i64 1, ptr %5) #22
  br label %7

7:                                                ; preds = %4, %2
  %8 = tail call i32 @checkStart(ptr noundef %0, i32 noundef %1, i32 noundef 2) #21
  switch i32 %8, label %13 [
    i32 1, label %.loopexit
    i32 0, label %9
  ]

9:                                                ; preds = %7
  %10 = atomicrmw xchg ptr @initial_positions.once, i8 1 seq_cst, align 1
  %11 = trunc i8 %10 to i1
  br i1 %11, label %13, label %12

12:                                               ; preds = %9
  tail call void (ptr, ...) @agwarningf(ptr noundef nonnull @.str.6) #21
  br label %13

13:                                               ; preds = %7, %12, %9
  %14 = getelementptr inbounds nuw i8, ptr %0, i64 16
  %15 = load ptr, ptr %14, align 8, !tbaa !40
  %16 = getelementptr inbounds nuw i8, ptr %15, i64 184
  %17 = load ptr, ptr %16, align 8, !tbaa !41
  %18 = load ptr, ptr %17, align 8, !tbaa !57
  %.not1214 = icmp eq ptr %18, null
  br i1 %.not1214, label %.loopexit, label %.lr.ph

.lr.ph:                                           ; preds = %13, %randompos.exit
  %indvars.iv = phi i64 [ %indvars.iv.next, %randompos.exit ], [ 0, %13 ]
  %19 = phi ptr [ %48, %randompos.exit ], [ %18, %13 ]
  %20 = getelementptr inbounds nuw i8, ptr %19, i64 16
  %21 = load ptr, ptr %20, align 8, !tbaa !40
  %22 = getelementptr inbounds nuw i8, ptr %21, i64 163
  %23 = load i8, ptr %22, align 1, !tbaa !88
  %.not13 = icmp eq i8 %23, 0
  br i1 %.not13, label %24, label %randompos.exit

24:                                               ; preds = %.lr.ph
  %25 = tail call double @drand48() #21
  %26 = load ptr, ptr %20, align 8, !tbaa !40
  %27 = getelementptr inbounds nuw i8, ptr %26, i64 176
  %28 = load ptr, ptr %27, align 8, !tbaa !86
  store double %25, ptr %28, align 8, !tbaa !10
  %29 = tail call double @drand48() #21
  %30 = load ptr, ptr %20, align 8, !tbaa !40
  %31 = getelementptr inbounds nuw i8, ptr %30, i64 176
  %32 = load ptr, ptr %31, align 8, !tbaa !86
  %33 = getelementptr inbounds nuw i8, ptr %32, i64 8
  store double %29, ptr %33, align 8, !tbaa !10
  %34 = load i16, ptr @Ndim, align 2, !tbaa !71
  %35 = icmp ugt i16 %34, 2
  br i1 %35, label %.lr.ph.i.i.i, label %randompos.exit

.lr.ph.i.i.i:                                     ; preds = %24, %.lr.ph.i.i.i
  %indvars.iv.i.i.i = phi i64 [ %indvars.iv.next.i.i.i, %.lr.ph.i.i.i ], [ 2, %24 ]
  %36 = tail call double @drand48() #21
  %37 = load ptr, ptr %20, align 8, !tbaa !40
  %38 = getelementptr inbounds nuw i8, ptr %37, i64 176
  %39 = load ptr, ptr %38, align 8, !tbaa !86
  %40 = getelementptr inbounds nuw double, ptr %39, i64 %indvars.iv.i.i.i
  store double %36, ptr %40, align 8, !tbaa !10
  %indvars.iv.next.i.i.i = add nuw nsw i64 %indvars.iv.i.i.i, 1
  %41 = load i16, ptr @Ndim, align 2, !tbaa !71
  %42 = zext i16 %41 to i64
  %43 = icmp samesign ult i64 %indvars.iv.next.i.i.i, %42
  br i1 %43, label %.lr.ph.i.i.i, label %randompos.exit, !llvm.loop !87

randompos.exit:                                   ; preds = %.lr.ph.i.i.i, %24, %.lr.ph
  %indvars.iv.next = add nuw nsw i64 %indvars.iv, 1
  %44 = load ptr, ptr %14, align 8, !tbaa !40
  %45 = getelementptr inbounds nuw i8, ptr %44, i64 184
  %46 = load ptr, ptr %45, align 8, !tbaa !41
  %47 = getelementptr inbounds nuw ptr, ptr %46, i64 %indvars.iv.next
  %48 = load ptr, ptr %47, align 8, !tbaa !57
  %.not12 = icmp eq ptr %48, null
  br i1 %.not12, label %.loopexit, label %.lr.ph, !llvm.loop !89

.loopexit:                                        ; preds = %randompos.exit, %13, %7
  ret void
}